; Function Attrs: mustprogress nofree norecurse nosync nounwind willreturn memory(read, argmem: readwrite, inaccessiblemem: none) uwtable
define void @_ZN14duckdb_parquet8TimeUnitC2Ev(ptr noundef nonnull align 8 captures(none) dereferenceable(33) initializes((0, 32)) %0, ptr noundef readonly captures(none) %1) unnamed_addr #7 align 2 personality ptr @__gxx_personality_v0 {
  %3 = load ptr, ptr %1, align 8
  store ptr %3, ptr %0, align 8, !tbaa !22
  %4 = getelementptr inbounds nuw i8, ptr %1, i64 8
  %5 = load ptr, ptr %4, align 8
  %6 = getelementptr i8, ptr %3, i64 -48
  %7 = load i64, ptr %6, align 8
  %8 = getelementptr inbounds i8, ptr %0, i64 %7
  store ptr %5, ptr %8, align 8, !tbaa !22
  %9 = getelementptr inbounds nuw i8, ptr %0, i64 8
  store ptr getelementptr inbounds nuw inrange(-48, 40) (i8, ptr @_ZTVN14duckdb_parquet12MilliSecondsE, i64 48), ptr %9, align 8, !tbaa !22
  %10 = getelementptr inbounds nuw i8, ptr %0, i64 16
  store ptr getelementptr inbounds nuw inrange(-48, 40) (i8, ptr @_ZTVN14duckdb_parquet12MicroSecondsE, i64 48), ptr %10, align 8, !tbaa !22
  %11 = getelementptr inbounds nuw i8, ptr %0, i64 24
  store ptr getelementptr inbounds nuw inrange(-48, 40) (i8, ptr @_ZTVN14duckdb_parquet11NanoSecondsE, i64 48), ptr %11, align 8, !tbaa !22
  %12 = getelementptr inbounds nuw i8, ptr %0, i64 32
  %13 = load i8, ptr %12, align 8
  %14 = and i8 %13, -8
  store i8 %14, ptr %12, align 8
  ret void
}